target datalayout = "e-m:e-p270:32:32-p271:32:32-p272:64:64-i64:64-i128:128-f80:128-n8:16:32:64-S128"
target triple = "x86_64-pc-linux-gnu"

%struct.mbox_ctx = type { ptr, ptr, ptr, ptr, i32, ptr }

@.str.183 = private unnamed_addr constant [9 x i8] c"x-binhex\00", align 1
@.str.184 = private unnamed_addr constant [27 x i8] c"Binhex file decoded to %s\0A\00", align 1
@.str.185 = private unnamed_addr constant [35 x i8] c"Couldn't decode binhex file to %s\0A\00", align 1

; Function Attrs: nounwind uwtable
define internal zeroext i1 @exportBinhexMessage(ptr noundef %0, ptr noundef %1) #0 {
  %3 = alloca ptr, align 8
  %4 = alloca ptr, align 8
  %5 = alloca i8, align 1
  %6 = alloca ptr, align 8
  store ptr %0, ptr %3, align 8
  store ptr %1, ptr %4, align 8
  store i8 0, ptr %5, align 1
  %7 = load ptr, ptr %4, align 8
  %8 = call i32 @messageGetEncoding(ptr noundef %7)
  %9 = icmp eq i32 %8, 0
  br i1 %9, label %10, label %12

10:                                               ; preds = %2
  %11 = load ptr, ptr %4, align 8
  call void @messageSetEncoding(ptr noundef %11, ptr noundef @.str.183)
  br label %12

12:                                               ; preds = %10, %2
  %13 = load ptr, ptr %4, align 8
  %14 = load ptr, ptr %3, align 8
  %15 = getelementptr inbounds %struct.mbox_ctx, ptr %14, i32 0, i32 0
  %16 = load ptr, ptr %15, align 8
  %17 = call ptr @messageToFileblob(ptr noundef %13, ptr noundef %16, i32 noundef 0)
  store ptr %17, ptr %6, align 8
  %18 = load ptr, ptr %6, align 8
  %19 = icmp ne ptr %18, null
  br i1 %19, label %20, label %32

20:                                               ; preds = %12
  %21 = load ptr, ptr %6, align 8
  %22 = call ptr @fileblobGetFilename(ptr noundef %21)
  call void (ptr, ...) @cli_dbgmsg(ptr noundef @.str.184, ptr noundef %22)
  %23 = load ptr, ptr %6, align 8
  %24 = call i32 @fileblobScanAndDestroy(ptr noundef %23)
  %25 = icmp eq i32 %24, 1
  br i1 %25, label %26, label %27

26:                                               ; preds = %20
  store i8 1, ptr %5, align 1
  br label %27

27:                                               ; preds = %26, %20
  %28 = load ptr, ptr %3, align 8
  %29 = getelementptr inbounds %struct.mbox_ctx, ptr %28, i32 0, i32 4
  %30 = load i32, ptr %29, align 8
  %31 = add i32 %30, 1
  store i32 %31, ptr %29, align 8
  br label %36

32:                                               ; preds = %12
  %33 = load ptr, ptr %3, align 8
  %34 = getelementptr inbounds %struct.mbox_ctx, ptr %33, i32 0, i32 0
  %35 = load ptr, ptr %34, align 8
  call void (ptr, ...) @cli_errmsg(ptr noundef @.str.185, ptr noundef %35)
  br label %36

36:                                               ; preds = %32, %27
  %37 = load i8, ptr %5, align 1
  %38 = trunc i8 %37 to i1
  ret i1 %38
}