; Function Attrs: nounwind uwtable
define internal fastcc zeroext i1 @exportBinhexMessage(ptr nocapture noundef %0, ptr noundef %1) unnamed_addr #0 {
  %3 = tail call i32 @messageGetEncoding(ptr noundef %1) #19
  %4 = icmp eq i32 %3, 0
  br i1 %4, label %5, label %6

5:                                                ; preds = %2
  tail call void @messageSetEncoding(ptr noundef %1, ptr noundef nonnull @.str.183) #19
  br label %6

6:                                                ; preds = %5, %2
  %7 = load ptr, ptr %0, align 8
  %8 = tail call ptr @messageToFileblob(ptr noundef %1, ptr noundef %7, i32 noundef 0) #19
  %.not = icmp eq ptr %8, null
  br i1 %.not, label %16, label %9

9:                                                ; preds = %6
  %10 = tail call ptr @fileblobGetFilename(ptr noundef nonnull %8) #19
  tail call void (ptr, ...) @cli_dbgmsg(ptr noundef nonnull @.str.184, ptr noundef %10) #19
  %11 = tail call i32 @fileblobScanAndDestroy(ptr noundef nonnull %8) #19
  %12 = icmp eq i32 %11, 1
  %13 = getelementptr inbounds i8, ptr %0, i64 32
  %14 = load i32, ptr %13, align 8
  %15 = add i32 %14, 1
  store i32 %15, ptr %13, align 8
  br label %18

16:                                               ; preds = %6
  %17 = load ptr, ptr %0, align 8
  tail call void (ptr, ...) @cli_errmsg(ptr noundef nonnull @.str.185, ptr noundef %17) #19
  br label %18

18:                                               ; preds = %16, %9
  %.1 = phi i1 [ %12, %9 ], [ false, %16 ]
  ret i1 %.1
}